target datalayout = "e-m:e-p270:32:32-p271:32:32-p272:64:64-i64:64-i128:128-f80:128-n8:16:32:64-S128"
target triple = "x86_64-pc-linux-gnu"

@hf_gryphon_getspeeds_set_ioctl = internal global i32 0, align 4
@hf_gryphon_getspeeds_get_ioctl = internal global i32 0, align 4
@hf_gryphon_getspeeds_size = internal global i32 0, align 4
@hf_gryphon_getspeeds_preset = internal global i32 0, align 4
@hf_gryphon_getspeeds_data = internal global i32 0, align 4
@.str.1106 = private unnamed_addr constant [19 x i8] c"Data for preset %d\00", align 1

; Function Attrs: null_pointer_is_valid sspstrong uwtable
define internal i32 @resp_getspeeds(ptr noundef %0, i32 noundef %1, ptr noundef %2) #0 {
  %4 = alloca ptr, align 8
  %5 = alloca i32, align 4
  %6 = alloca ptr, align 8
  %7 = alloca i32, align 4
  %8 = alloca i32, align 4
  %9 = alloca i32, align 4
  store ptr %0, ptr %4, align 8
  store i32 %1, ptr %5, align 4
  store ptr %2, ptr %6, align 8
  call void @llvm.lifetime.start.p0(i64 4, ptr %7) #7
  call void @llvm.lifetime.start.p0(i64 4, ptr %8) #7
  %10 = load ptr, ptr %4, align 8
  %11 = load i32, ptr %5, align 4
  %12 = add i32 %11, 8
  %13 = call zeroext i8 @tvb_get_uint8(ptr noundef %10, i32 noundef %12)
  %14 = zext i8 %13 to i32
  store i32 %14, ptr %8, align 4
  call void @llvm.lifetime.start.p0(i64 4, ptr %9) #7
  %15 = load ptr, ptr %4, align 8
  %16 = load i32, ptr %5, align 4
  %17 = add i32 %16, 9
  %18 = call zeroext i8 @tvb_get_uint8(ptr noundef %15, i32 noundef %17)
  %19 = zext i8 %18 to i32
  store i32 %19, ptr %9, align 4
  %20 = load ptr, ptr %6, align 8
  %21 = load i32, ptr @hf_gryphon_getspeeds_set_ioctl, align 4
  %22 = load ptr, ptr %4, align 8
  %23 = load i32, ptr %5, align 4
  %24 = call ptr @proto_tree_add_item(ptr noundef %20, i32 noundef %21, ptr noundef %22, i32 noundef %23, i32 noundef 4, i32 noundef 0)
  %25 = load ptr, ptr %6, align 8
  %26 = load i32, ptr @hf_gryphon_getspeeds_get_ioctl, align 4
  %27 = load ptr, ptr %4, align 8
  %28 = load i32, ptr %5, align 4
  %29 = add i32 %28, 4
  %30 = call ptr @proto_tree_add_item(ptr noundef %25, i32 noundef %26, ptr noundef %27, i32 noundef %29, i32 noundef 4, i32 noundef 0)
  %31 = load ptr, ptr %6, align 8
  %32 = load i32, ptr @hf_gryphon_getspeeds_size, align 4
  %33 = load ptr, ptr %4, align 8
  %34 = load i32, ptr %5, align 4
  %35 = add i32 %34, 8
  %36 = call ptr @proto_tree_add_item(ptr noundef %31, i32 noundef %32, ptr noundef %33, i32 noundef %35, i32 noundef 1, i32 noundef 0)
  %37 = load ptr, ptr %6, align 8
  %38 = load i32, ptr @hf_gryphon_getspeeds_preset, align 4
  %39 = load ptr, ptr %4, align 8
  %40 = load i32, ptr %5, align 4
  %41 = add i32 %40, 9
  %42 = call ptr @proto_tree_add_item(ptr noundef %37, i32 noundef %38, ptr noundef %39, i32 noundef %41, i32 noundef 1, i32 noundef 0)
  %43 = load i32, ptr %5, align 4
  %44 = add i32 %43, 10
  store i32 %44, ptr %5, align 4
  store i32 1, ptr %7, align 4
  br label %45

45:                                               ; preds = %64, %3
  %46 = load i32, ptr %7, align 4
  %47 = load i32, ptr %9, align 4
  %48 = icmp sle i32 %46, %47
  br i1 %48, label %49, label %67

49:                                               ; preds = %45
  %50 = load ptr, ptr %6, align 8
  %51 = load i32, ptr @hf_gryphon_getspeeds_data, align 4
  %52 = load ptr, ptr %4, align 8
  %53 = load i32, ptr %5, align 4
  %54 = load i32, ptr %8, align 4
  %55 = load ptr, ptr %4, align 8
  %56 = load i32, ptr %5, align 4
  %57 = load i32, ptr %8, align 4
  %58 = call ptr @tvb_get_ptr(ptr noundef %55, i32 noundef %56, i32 noundef %57)
  %59 = load i32, ptr %7, align 4
  %60 = call ptr (ptr, i32, ptr, i32, i32, ptr, ptr, ...) @proto_tree_add_bytes_format(ptr noundef %50, i32 noundef %51, ptr noundef %52, i32 noundef %53, i32 noundef %54, ptr noundef %58, ptr noundef @.str.1106, i32 noundef %59)
  %61 = load i32, ptr %8, align 4
  %62 = load i32, ptr %5, align 4
  %63 = add i32 %62, %61
  store i32 %63, ptr %5, align 4
  br label %64

64:                                               ; preds = %49
  %65 = load i32, ptr %7, align 4
  %66 = add i32 %65, 1
  store i32 %66, ptr %7, align 4
  br label %45, !llvm.loop !31

67:                                               ; preds = %45
  %68 = load i32, ptr %5, align 4
  call void @llvm.lifetime.end.p0(i64 4, ptr %9) #7
  call void @llvm.lifetime.end.p0(i64 4, ptr %8) #7
  call void @llvm.lifetime.end.p0(i64 4, ptr %7) #7
  ret i32 %68
}