; Function Attrs: null_pointer_is_valid sspstrong uwtable
define internal fastcc i32 @resp_getspeeds(ptr noundef %0, ptr noundef %1) unnamed_addr #0 {
  %3 = tail call zeroext i8 @tvb_get_uint8(ptr noundef %0, i32 noundef 24)
  %4 = zext i8 %3 to i32
  %5 = tail call zeroext i8 @tvb_get_uint8(ptr noundef %0, i32 noundef 25)
  %6 = load i32, ptr @hf_gryphon_getspeeds_set_ioctl, align 4
  %7 = tail call ptr @proto_tree_add_item(ptr noundef %1, i32 noundef %6, ptr noundef %0, i32 noundef 16, i32 noundef 4, i32 noundef 0)
  %8 = load i32, ptr @hf_gryphon_getspeeds_get_ioctl, align 4
  %9 = tail call ptr @proto_tree_add_item(ptr noundef %1, i32 noundef %8, ptr noundef %0, i32 noundef 20, i32 noundef 4, i32 noundef 0)
  %10 = load i32, ptr @hf_gryphon_getspeeds_size, align 4
  %11 = tail call ptr @proto_tree_add_item(ptr noundef %1, i32 noundef %10, ptr noundef %0, i32 noundef 24, i32 noundef 1, i32 noundef 0)
  %12 = load i32, ptr @hf_gryphon_getspeeds_preset, align 4
  %13 = tail call ptr @proto_tree_add_item(ptr noundef %1, i32 noundef %12, ptr noundef %0, i32 noundef 25, i32 noundef 1, i32 noundef 0)
  %.not31 = icmp eq i8 %5, 0
  br i1 %.not31, label %._crit_edge, label %.lr.ph.preheader

.lr.ph.preheader:                                 ; preds = %2
  %14 = zext i8 %5 to i32
  br label %.lr.ph

.lr.ph:                                           ; preds = %.lr.ph.preheader, %.lr.ph
  %.033 = phi i32 [ %18, %.lr.ph ], [ 26, %.lr.ph.preheader ]
  %.03032 = phi i32 [ %19, %.lr.ph ], [ 1, %.lr.ph.preheader ]
  %15 = load i32, ptr @hf_gryphon_getspeeds_data, align 4
  %16 = tail call ptr @tvb_get_ptr(ptr noundef %0, i32 noundef %.033, i32 noundef %4)
  %17 = tail call ptr (ptr, i32, ptr, i32, i32, ptr, ptr, ...) @proto_tree_add_bytes_format(ptr noundef %1, i32 noundef %15, ptr noundef %0, i32 noundef %.033, i32 noundef %4, ptr noundef %16, ptr noundef nonnull @.str.1106, i32 noundef %.03032)
  %18 = add nuw nsw i32 %.033, %4
  %19 = add nuw nsw i32 %.03032, 1
  %exitcond.not = icmp eq i32 %.03032, %14
  br i1 %exitcond.not, label %._crit_edge, label %.lr.ph, !llvm.loop !31

._crit_edge:                                      ; preds = %.lr.ph, %2
  %.0.lcssa = phi i32 [ 26, %2 ], [ %18, %.lr.ph ]
  ret i32 %.0.lcssa
}